; Function Attrs: nounwind uwtable
define ptr @l___private_Lean_Data_FuzzyMatching_0__Lean_FuzzyMatching_fuzzyMatchCore_getMiss(ptr noundef readonly captures(none) %0, ptr noundef readonly captures(none) %1, ptr noundef %2, ptr noundef %3) local_unnamed_addr #0 {
  %5 = tail call ptr @l___private_Lean_Data_FuzzyMatching_0__Lean_FuzzyMatching_fuzzyMatchCore_getDoubleIdx(ptr noundef %0, ptr noundef %2, ptr noundef %3)
  %6 = ptrtoint ptr %5 to i64
  %7 = and i64 %6, 1
  %.not.i8 = icmp eq i64 %7, 0
  br i1 %.not.i8, label %25, label %8

8:                                                ; preds = %4
  %9 = lshr i64 %6, 1
  %10 = getelementptr i8, ptr %1, i64 8
  %.val.i = load i64, ptr %10, align 8, !tbaa !13
  %11 = icmp ult i64 %9, %.val.i
  br i1 %11, label %13, label %lean_array_get.exit.thread11

lean_array_get.exit.thread11:                     ; preds = %8
  %12 = tail call ptr @lean_array_get_panic(ptr noundef nonnull inttoptr (i64 1 to ptr)) #7
  br label %lean_dec.exit

13:                                               ; preds = %8
  %14 = getelementptr inbounds nuw i8, ptr %1, i64 24
  %15 = getelementptr inbounds nuw [0 x ptr], ptr %14, i64 0, i64 %9
  %16 = load ptr, ptr %15, align 8, !tbaa !11
  %17 = ptrtoint ptr %16 to i64
  %18 = and i64 %17, 1
  %.not.i11.i = icmp eq i64 %18, 0
  br i1 %.not.i11.i, label %19, label %lean_dec.exit

19:                                               ; preds = %13
  %.val.i.i.i = load i32, ptr %16, align 4, !tbaa !5
  %20 = icmp sgt i32 %.val.i.i.i, 0
  br i1 %20, label %21, label %23, !prof !10

21:                                               ; preds = %19
  %22 = add nuw i32 %.val.i.i.i, 1
  store i32 %22, ptr %16, align 4, !tbaa !5
  br label %lean_dec.exit

23:                                               ; preds = %19
  %.not.i.i.i = icmp eq i32 %.val.i.i.i, 0
  br i1 %.not.i.i.i, label %lean_dec.exit, label %24

24:                                               ; preds = %23
  tail call void @lean_inc_ref_cold(ptr noundef nonnull %16) #7
  br label %lean_dec.exit

25:                                               ; preds = %4
  %26 = tail call ptr @lean_array_get_panic(ptr noundef nonnull inttoptr (i64 1 to ptr)) #7
  %27 = load i32, ptr %5, align 4, !tbaa !5
  %28 = icmp sgt i32 %27, 1
  br i1 %28, label %29, label %31, !prof !10

29:                                               ; preds = %25
  %30 = add nsw i32 %27, -1
  store i32 %30, ptr %5, align 4, !tbaa !5
  br label %lean_dec.exit

31:                                               ; preds = %25
  %.not.i = icmp eq i32 %27, 0
  br i1 %.not.i, label %lean_dec.exit, label %32

32:                                               ; preds = %31
  tail call void @lean_dec_ref_cold(ptr noundef nonnull %5) #7
  br label %lean_dec.exit

lean_dec.exit:                                    ; preds = %24, %23, %21, %13, %32, %31, %29, %lean_array_get.exit.thread11
  %.1.i10 = phi ptr [ %12, %lean_array_get.exit.thread11 ], [ %26, %29 ], [ %26, %31 ], [ %26, %32 ], [ %16, %13 ], [ %16, %21 ], [ %16, %23 ], [ %16, %24 ]
  ret ptr %.1.i10
}